; Function Attrs: mustprogress nofree norecurse nosync nounwind memory(argmem: readwrite) uwtable
define dso_local void @_ZN4absl12crc_internal5CRC3218ExtendByZeroesImplEPjmPKjS4_(ptr nocapture noundef %crc, i64 noundef %length, ptr nocapture noundef readonly %zeroes_table, ptr nocapture noundef readonly %poly_table) local_unnamed_addr #7 align 2 {
entry:
  %mtab = alloca [4 x i64], align 16
  %cmp.not = icmp eq i64 %length, 0
  br i1 %cmp.not, label %if.end44, label %if.then

if.then:                                          ; preds = %entry
  %0 = load i32, ptr %crc, align 4
  %invariant.gep = getelementptr i8, ptr %zeroes_table, i64 -4
  %arrayinit.element = getelementptr inbounds i8, ptr %mtab, i64 8
  %arrayinit.element6 = getelementptr inbounds i8, ptr %mtab, i64 16
  %arrayinit.element7 = getelementptr inbounds i8, ptr %mtab, i64 24
  br label %for.body

for.body:                                         ; preds = %if.then, %for.inc40
  %length.addr.025 = phi i64 [ %length, %if.then ], [ %shr42, %for.inc40 ]
  %l.024 = phi i32 [ %0, %if.then ], [ %l.2, %for.inc40 ]
  %i.023 = phi i32 [ 0, %if.then ], [ %add41, %for.inc40 ]
  %1 = trunc i64 %length.addr.025 to i32
  %conv = and i32 %1, 15
  %cmp2.not = icmp eq i32 %conv, 0
  br i1 %cmp2.not, label %for.inc40, label %if.then3

if.then3:                                         ; preds = %for.body
  %add = add nuw nsw i32 %conv, %i.023
  %2 = zext nneg i32 %add to i64
  %gep = getelementptr i32, ptr %invariant.gep, i64 %2
  %3 = load i32, ptr %gep, align 4
  %conv4 = zext i32 %3 to i64
  %shl = shl nuw nsw i64 %conv4, 1
  %shl5 = shl nuw nsw i64 %conv4, 2
  store i64 0, ptr %mtab, align 16
  store i64 %shl, ptr %arrayinit.element, align 8
  store i64 %shl5, ptr %arrayinit.element6, align 16
  %xor = xor i64 %shl5, %shl
  store i64 %xor, ptr %arrayinit.element7, align 8
  br label %for.body10

for.body10:                                       ; preds = %if.then3, %for.body10
  %x.022 = phi i32 [ 0, %if.then3 ], [ %add38, %for.body10 ]
  %result.021 = phi i64 [ 0, %if.then3 ], [ %xor37, %for.body10 ]
  %l.120 = phi i32 [ %l.024, %if.then3 ], [ %shr32, %for.body10 ]
  %and11 = and i32 %l.120, 3
  %idxprom12 = zext nneg i32 %and11 to i64
  %arrayidx13 = getelementptr inbounds [4 x i64], ptr %mtab, i64 0, i64 %idxprom12
  %4 = load i64, ptr %arrayidx13, align 8
  %shr = lshr i32 %l.120, 2
  %and14 = and i32 %shr, 3
  %idxprom15 = zext nneg i32 %and14 to i64
  %arrayidx16 = getelementptr inbounds [4 x i64], ptr %mtab, i64 0, i64 %idxprom15
  %5 = load i64, ptr %arrayidx16, align 8
  %shl17 = shl i64 %5, 2
  %shr19 = lshr i32 %l.120, 4
  %and20 = and i32 %shr19, 3
  %idxprom21 = zext nneg i32 %and20 to i64
  %arrayidx22 = getelementptr inbounds [4 x i64], ptr %mtab, i64 0, i64 %idxprom21
  %6 = load i64, ptr %arrayidx22, align 8
  %shl23 = shl i64 %6, 4
  %shr25 = lshr i32 %l.120, 6
  %and26 = and i32 %shr25, 3
  %idxprom27 = zext nneg i32 %and26 to i64
  %arrayidx28 = getelementptr inbounds [4 x i64], ptr %mtab, i64 0, i64 %idxprom27
  %7 = load i64, ptr %arrayidx28, align 8
  %shl29 = shl i64 %7, 6
  %xor18 = xor i64 %4, %result.021
  %xor24 = xor i64 %xor18, %shl17
  %xor30 = xor i64 %xor24, %shl23
  %xor31 = xor i64 %xor30, %shl29
  %shr32 = lshr i32 %l.120, 8
  %shr33 = lshr i64 %xor31, 8
  %and34 = and i64 %xor31, 255
  %arrayidx35 = getelementptr inbounds i32, ptr %poly_table, i64 %and34
  %8 = load i32, ptr %arrayidx35, align 4
  %conv36 = zext i32 %8 to i64
  %xor37 = xor i64 %shr33, %conv36
  %add38 = add nuw nsw i32 %x.022, 8
  %cmp9 = icmp ult i32 %x.022, 24
  br i1 %cmp9, label %for.body10, label %for.end, !llvm.loop !20

for.end:                                          ; preds = %for.body10
  %conv39 = trunc i64 %xor37 to i32
  br label %for.inc40

for.inc40:                                        ; preds = %for.body, %for.end
  %l.2 = phi i32 [ %conv39, %for.end ], [ %l.024, %for.body ]
  %add41 = add nuw nsw i32 %i.023, 15
  %shr42 = lshr i64 %length.addr.025, 4
  %cmp1.not = icmp ult i64 %length.addr.025, 16
  br i1 %cmp1.not, label %for.end43, label %for.body, !llvm.loop !21

for.end43:                                        ; preds = %for.inc40
  store i32 %l.2, ptr %crc, align 4
  br label %if.end44

if.end44:                                         ; preds = %for.end43, %entry
  ret void
}